; Function Attrs: mustprogress uwtable
define hidden noundef ptr @_ZN7datalog21bound_relation_plugin12mk_rename_fnERKNS_13relation_baseEjPKj(ptr noundef nonnull readnone align 8 captures(address) dereferenceable(128) %0, ptr noundef nonnull align 8 dereferenceable(28) %1, i32 noundef %2, ptr noundef %3) unnamed_addr #3 align 2 {
  %5 = getelementptr inbounds nuw i8, ptr %1, i64 8
  %6 = load ptr, ptr %5, align 8, !tbaa !54
  %7 = icmp eq ptr %6, %0
  br i1 %7, label %8, label %11

8:                                                ; preds = %4
  %9 = tail call noalias noundef ptr @_ZN6memory8allocateEm(i64 noundef 24)
  %10 = getelementptr inbounds nuw i8, ptr %1, i64 16
  tail call void @_ZN7datalog17tr_infrastructureINS_15relation_traitsEE20convenient_rename_fnC2ERKNS_18relation_signatureEjPKj(ptr noundef nonnull align 8 dereferenceable(24) %9, ptr noundef nonnull align 8 dereferenceable(8) %10, i32 noundef %2, ptr noundef %3)
  store ptr getelementptr inbounds nuw inrange(-16, 24) (i8, ptr @_ZTVN7datalog21bound_relation_plugin9rename_fnE, i64 16), ptr %9, align 8, !tbaa !17
  br label %11

11:                                               ; preds = %4, %8
  %.0 = phi ptr [ %9, %8 ], [ null, %4 ]
  ret ptr %.0
}